; Function Attrs: nounwind uwtable
define i32 @json_count_array_elements(ptr noundef readonly captures(address) %0, ptr noundef writeonly captures(none) %1) local_unnamed_addr #1 {
  %3 = alloca %struct.JsonLexContext, align 8
  call void @llvm.lifetime.start.p0(i64 120, ptr nonnull %3) #16
  %4 = icmp eq ptr %0, @failed_oom
  br i1 %4, label %parse_array_element.exit, label %5

5:                                                ; preds = %2
  call void @llvm.memcpy.p0.p0.i64(ptr noundef nonnull align 8 dereferenceable(120) %3, ptr noundef nonnull align 8 dereferenceable(120) %0, i64 120, i1 false)
  %6 = getelementptr inbounds nuw i8, ptr %3, i64 96
  store i8 0, ptr %6, align 8
  %7 = getelementptr inbounds nuw i8, ptr %3, i64 56
  %8 = load i32, ptr %7, align 8
  %9 = add i32 %8, 1
  store i32 %9, ptr %7, align 8
  %10 = getelementptr inbounds nuw i8, ptr %3, i64 52
  %.val.i = load i32, ptr %10, align 4
  %11 = icmp eq i32 %.val.i, 5
  br i1 %11, label %lex_expect.exit, label %12

12:                                               ; preds = %5
  %13 = getelementptr inbounds nuw i8, ptr %3, i64 24
  %14 = load ptr, ptr %13, align 8
  %15 = icmp eq ptr %14, null
  %16 = icmp eq i32 %.val.i, 12
  %or.cond.i = or i1 %16, %15
  %spec.select = select i1 %or.cond.i, i32 11, i32 6
  br label %parse_array_element.exit

lex_expect.exit:                                  ; preds = %5
  %17 = call i32 @json_lex(ptr noundef nonnull %3)
  %.not = icmp eq i32 %17, 0
  br i1 %.not, label %18, label %parse_array_element.exit

18:                                               ; preds = %lex_expect.exit
  %.val = load i32, ptr %10, align 4
  %.not19 = icmp eq i32 %.val, 6
  br i1 %.not19, label %lex_expect.exit29, label %.preheader

thread-pre-split:                                 ; preds = %29
  %.val.i24.pr = load i32, ptr %10, align 4
  br label %.preheader

.preheader:                                       ; preds = %18, %thread-pre-split
  %.val.i24 = phi i32 [ %.val.i24.pr, %thread-pre-split ], [ %.val, %18 ]
  %.1 = phi i32 [ %19, %thread-pre-split ], [ 0, %18 ]
  %19 = add i32 %.1, 1
  switch i32 %.val.i24, label %24 [
    i32 3, label %20
    i32 5, label %22
  ]

20:                                               ; preds = %.preheader
  %21 = call fastcc i32 @parse_object(ptr noundef nonnull %3, ptr noundef nonnull @nullSemAction) #19
  br label %26

22:                                               ; preds = %.preheader
  %23 = call fastcc i32 @parse_array(ptr noundef nonnull %3, ptr noundef nonnull @nullSemAction) #19
  br label %26

24:                                               ; preds = %.preheader
  %25 = call fastcc i32 @parse_scalar(ptr noundef nonnull %3, ptr noundef nonnull @nullSemAction)
  br label %26

26:                                               ; preds = %24, %22, %20
  %.025.i = phi i32 [ %25, %24 ], [ %23, %22 ], [ %21, %20 ]
  %.not31.i = icmp eq i32 %.025.i, 0
  br i1 %.not31.i, label %27, label %parse_array_element.exit

27:                                               ; preds = %26
  %28 = load i32, ptr %10, align 4
  switch i32 %28, label %31 [
    i32 7, label %29
    i32 6, label %lex_expect.exit29
  ]

29:                                               ; preds = %27
  %30 = call i32 @json_lex(ptr noundef nonnull %3)
  %.not22 = icmp eq i32 %30, 0
  br i1 %.not22, label %thread-pre-split, label %parse_array_element.exit

31:                                               ; preds = %27
  %32 = getelementptr inbounds nuw i8, ptr %3, i64 24
  %33 = load ptr, ptr %32, align 8
  %34 = icmp eq ptr %33, null
  %35 = icmp eq i32 %28, 12
  %or.cond.i27 = or i1 %35, %34
  %spec.select41 = select i1 %or.cond.i27, i32 11, i32 7
  br label %parse_array_element.exit

lex_expect.exit29:                                ; preds = %27, %18
  %.037 = phi i32 [ 0, %18 ], [ %19, %27 ]
  %36 = call i32 @json_lex(ptr noundef nonnull %3)
  %.not23 = icmp eq i32 %36, 0
  br i1 %.not23, label %37, label %parse_array_element.exit

37:                                               ; preds = %lex_expect.exit29
  store i32 %.037, ptr %1, align 4
  br label %parse_array_element.exit

parse_array_element.exit:                         ; preds = %26, %29, %31, %12, %lex_expect.exit29, %lex_expect.exit, %2, %37
  %.013 = phi i32 [ 0, %37 ], [ 16, %2 ], [ %17, %lex_expect.exit ], [ %36, %lex_expect.exit29 ], [ %spec.select, %12 ], [ %spec.select41, %31 ], [ %.025.i, %26 ], [ %30, %29 ]
  call void @llvm.lifetime.end.p0(i64 120, ptr nonnull %3) #16
  ret i32 %.013
}